; Function Attrs: nounwind sspstrong uwtable
define internal noundef i64 @pkey_ctx_apply_options0(i64 noundef %0) #0 {
  %2 = inttoptr i64 %0 to ptr
  %3 = getelementptr inbounds nuw i8, ptr %2, i64 8
  %4 = load i64, ptr %3, align 8, !tbaa !10
  %5 = icmp eq i64 %4, 0
  %6 = and i64 %4, 7
  %7 = icmp ne i64 %6, 0
  %8 = or i1 %5, %7
  br i1 %8, label %rbimpl_RB_TYPE_P_fastpath.exit.thread.i, label %rbimpl_RB_TYPE_P_fastpath.exit.i, !prof !117

rbimpl_RB_TYPE_P_fastpath.exit.i:                 ; preds = %1
  %9 = inttoptr i64 %4 to ptr
  %10 = load i64, ptr %9, align 8, !tbaa !28
  %11 = and i64 %10, 31
  %12 = icmp eq i64 %11, 8
  br i1 %12, label %Check_Type.exit, label %rbimpl_RB_TYPE_P_fastpath.exit.thread.i, !prof !118

rbimpl_RB_TYPE_P_fastpath.exit.thread.i:          ; preds = %rbimpl_RB_TYPE_P_fastpath.exit.i, %1
  tail call void @rb_unexpected_type(i64 noundef %4, i32 noundef 8) #10
  unreachable

Check_Type.exit:                                  ; preds = %rbimpl_RB_TYPE_P_fastpath.exit.i
  %.pr.i = load i64, ptr @pkey_ctx_apply_options0.rbimpl_id, align 8, !tbaa !10
  %.not4.i = icmp eq i64 %.pr.i, 0
  br i1 %.not4.i, label %.lr.ph.i, label %rbimpl_intern_const.exit

.lr.ph.i:                                         ; preds = %Check_Type.exit, %.lr.ph.i
  %13 = tail call i64 @rb_intern2(ptr noundef nonnull @.str.49, i64 noundef 4) #8
  store i64 %13, ptr @pkey_ctx_apply_options0.rbimpl_id, align 8, !tbaa !10
  %.not.i = icmp eq i64 %13, 0
  br i1 %.not.i, label %.lr.ph.i, label %rbimpl_intern_const.exit, !llvm.loop !24

rbimpl_intern_const.exit:                         ; preds = %.lr.ph.i, %Check_Type.exit
  %.lcssa.i = phi i64 [ %.pr.i, %Check_Type.exit ], [ %13, %.lr.ph.i ]
  %14 = load i64, ptr %2, align 8, !tbaa !10
  %15 = tail call i64 @rb_block_call(i64 noundef %4, i64 noundef %.lcssa.i, i32 noundef 0, ptr noundef null, ptr noundef nonnull @pkey_ctx_apply_options_i, i64 noundef %14) #8
  ret i64 4
}